; Function Attrs: nounwind uwtable
define internal i32 @imm5_decode_frame(ptr noundef %0, ptr noundef %1, ptr noundef writeonly captures(none) %2, ptr noundef %3) #1 {
  %5 = getelementptr inbounds nuw i8, ptr %0, i64 32
  %6 = load ptr, ptr %5, align 8, !tbaa !4
  %7 = load ptr, ptr %6, align 8, !tbaa !27
  %8 = getelementptr inbounds nuw i8, ptr %3, i64 32
  %9 = load i32, ptr %8, align 8, !tbaa !34
  %10 = icmp sgt i32 %9, 24
  br i1 %10, label %11, label %.thread88

11:                                               ; preds = %4
  %12 = getelementptr inbounds nuw i8, ptr %3, i64 24
  %13 = load ptr, ptr %12, align 8, !tbaa !36
  %14 = getelementptr inbounds nuw i8, ptr %13, i64 8
  %15 = load i8, ptr %14, align 1, !tbaa !37
  %16 = icmp ult i8 %15, 2
  br i1 %16, label %17, label %.thread88

17:                                               ; preds = %11
  %18 = getelementptr inbounds nuw i8, ptr %13, i64 4
  %19 = load i32, ptr %18, align 1, !tbaa !37
  %20 = zext i32 %19 to i64
  %21 = add nuw nsw i64 %20, 24
  %22 = zext nneg i32 %9 to i64
  %.not = icmp samesign ugt i64 %21, %22
  br i1 %.not, label %.thread88, label %23

23:                                               ; preds = %17
  %24 = getelementptr inbounds nuw i8, ptr %13, i64 1
  %25 = load i8, ptr %24, align 1, !tbaa !37
  %26 = getelementptr inbounds nuw i8, ptr %13, i64 10
  %27 = load i8, ptr %26, align 1, !tbaa !37
  %28 = zext i8 %27 to i32
  %29 = icmp eq i8 %25, 10
  br i1 %29, label %30, label %33

30:                                               ; preds = %23
  %31 = getelementptr inbounds nuw i8, ptr %6, i64 8
  %32 = load ptr, ptr %31, align 8, !tbaa !33
  br label %37

33:                                               ; preds = %23
  %34 = icmp eq i8 %27, 17
  br i1 %34, label %.thread, label %35

35:                                               ; preds = %33
  %36 = icmp eq i8 %27, 18
  %spec.store.select = select i1 %36, i32 5, i32 %28
  br label %37

37:                                               ; preds = %35, %30
  %.077 = phi i32 [ %28, %30 ], [ %spec.store.select, %35 ]
  %.176 = phi ptr [ %32, %30 ], [ %7, %35 ]
  %38 = add nsw i32 %.077, -1
  %or.cond = icmp ult i32 %38, 12
  br i1 %or.cond, label %.thread, label %59

.thread:                                          ; preds = %33, %37
  %39 = phi i32 [ %38, %37 ], [ 3, %33 ]
  %.17687 = phi ptr [ %.176, %37 ], [ %7, %33 ]
  %40 = tail call i32 @av_packet_make_writable(ptr noundef nonnull %3) #5
  %41 = icmp slt i32 %40, 0
  br i1 %41, label %103, label %42

42:                                               ; preds = %.thread
  %43 = zext nneg i32 %39 to i64
  %44 = getelementptr inbounds nuw [14 x %struct.IMM5_unit], ptr @IMM5_units, i64 0, i64 %43
  %45 = getelementptr inbounds nuw i8, ptr %44, i64 14
  %46 = load i8, ptr %45, align 1, !tbaa !38
  %47 = zext i8 %46 to i32
  %48 = icmp eq i8 %25, 2
  %49 = sub nsw i32 16, %47
  %50 = load ptr, ptr %12, align 8, !tbaa !36
  %51 = sext i32 %49 to i64
  %52 = getelementptr inbounds i8, ptr %50, i64 %51
  store ptr %52, ptr %12, align 8, !tbaa !36
  %.074 = add i32 %19, 8
  %53 = add i32 %.074, %47
  store i32 %53, ptr %8, align 8, !tbaa !34
  %54 = zext i8 %46 to i64
  tail call void @llvm.memcpy.p0.p0.i64(ptr align 1 %52, ptr nonnull align 1 %44, i64 %54, i1 false)
  %55 = load ptr, ptr %12, align 8, !tbaa !36
  %56 = getelementptr inbounds nuw i8, ptr %55, i64 %54
  br i1 %48, label %57, label %58

57:                                               ; preds = %42
  store i64 -9206238999977394176, ptr %56, align 1
  br label %.thread88

58:                                               ; preds = %42
  store i64 2896604456441348096, ptr %56, align 1
  br label %.thread88

59:                                               ; preds = %37
  %60 = getelementptr inbounds nuw i8, ptr %13, i64 24
  store ptr %60, ptr %12, align 8, !tbaa !36
  %61 = add nsw i32 %9, -24
  store i32 %61, ptr %8, align 8, !tbaa !34
  br label %.thread88

.thread88:                                        ; preds = %59, %58, %57, %17, %11, %4
  %.075 = phi ptr [ %7, %17 ], [ %7, %11 ], [ %7, %4 ], [ %.176, %59 ], [ %.17687, %58 ], [ %.17687, %57 ]
  %62 = tail call i32 @avcodec_send_packet(ptr noundef %.075, ptr noundef nonnull %3) #5
  %63 = icmp slt i32 %62, 0
  br i1 %63, label %64, label %65

64:                                               ; preds = %.thread88
  tail call void (ptr, i32, ptr, ...) @av_log(ptr noundef nonnull %0, i32 noundef 16, ptr noundef nonnull @.str.2) #5
  br label %103

65:                                               ; preds = %.thread88
  %66 = tail call i32 @avcodec_receive_frame(ptr noundef %.075, ptr noundef %1) #5
  %67 = icmp slt i32 %66, 0
  br i1 %67, label %103, label %68

68:                                               ; preds = %65
  %69 = getelementptr inbounds nuw i8, ptr %.075, i64 136
  %70 = load i32, ptr %69, align 8, !tbaa !40
  %71 = getelementptr inbounds nuw i8, ptr %0, i64 136
  store i32 %70, ptr %71, align 8, !tbaa !40
  %72 = getelementptr inbounds nuw i8, ptr %.075, i64 120
  %73 = load i32, ptr %72, align 8, !tbaa !41
  %74 = getelementptr inbounds nuw i8, ptr %0, i64 120
  store i32 %73, ptr %74, align 8, !tbaa !41
  %75 = getelementptr inbounds nuw i8, ptr %.075, i64 124
  %76 = load i32, ptr %75, align 4, !tbaa !42
  %77 = getelementptr inbounds nuw i8, ptr %0, i64 124
  store i32 %76, ptr %77, align 4, !tbaa !42
  %78 = getelementptr inbounds nuw i8, ptr %.075, i64 112
  %79 = load i32, ptr %78, align 8, !tbaa !43
  %80 = getelementptr inbounds nuw i8, ptr %0, i64 112
  store i32 %79, ptr %80, align 8, !tbaa !43
  %81 = getelementptr inbounds nuw i8, ptr %.075, i64 116
  %82 = load i32, ptr %81, align 4, !tbaa !44
  %83 = getelementptr inbounds nuw i8, ptr %0, i64 116
  store i32 %82, ptr %83, align 4, !tbaa !44
  %84 = getelementptr inbounds nuw i8, ptr %.075, i64 56
  %85 = load i64, ptr %84, align 8, !tbaa !45
  %86 = getelementptr inbounds nuw i8, ptr %0, i64 56
  store i64 %85, ptr %86, align 8, !tbaa !45
  %87 = getelementptr inbounds nuw i8, ptr %.075, i64 152
  %88 = load i32, ptr %87, align 8, !tbaa !46
  %89 = getelementptr inbounds nuw i8, ptr %0, i64 152
  store i32 %88, ptr %89, align 8, !tbaa !46
  %90 = getelementptr inbounds nuw i8, ptr %.075, i64 156
  %91 = load i32, ptr %90, align 4, !tbaa !47
  %92 = getelementptr inbounds nuw i8, ptr %0, i64 156
  store i32 %91, ptr %92, align 4, !tbaa !47
  %93 = getelementptr inbounds nuw i8, ptr %.075, i64 148
  %94 = load i32, ptr %93, align 4, !tbaa !48
  %95 = getelementptr inbounds nuw i8, ptr %0, i64 148
  store i32 %94, ptr %95, align 4, !tbaa !48
  %96 = getelementptr inbounds nuw i8, ptr %.075, i64 144
  %97 = load i32, ptr %96, align 8, !tbaa !49
  %98 = getelementptr inbounds nuw i8, ptr %0, i64 144
  store i32 %97, ptr %98, align 8, !tbaa !49
  %99 = getelementptr inbounds nuw i8, ptr %.075, i64 160
  %100 = load i32, ptr %99, align 8, !tbaa !50
  %101 = getelementptr inbounds nuw i8, ptr %0, i64 160
  store i32 %100, ptr %101, align 8, !tbaa !50
  store i32 1, ptr %2, align 4, !tbaa !51
  %102 = load i32, ptr %8, align 8, !tbaa !34
  br label %103

103:                                              ; preds = %.thread, %65, %68, %64
  %.1 = phi i32 [ %62, %64 ], [ %102, %68 ], [ %66, %65 ], [ %40, %.thread ]
  ret i32 %.1
}